target datalayout = "e-m:e-p270:32:32-p271:32:32-p272:64:64-i64:64-i128:128-f80:128-n8:16:32:64-S128"
target triple = "x86_64-pc-linux-gnu"

%"class.boost::detail::shared_count" = type { ptr }
%"class.boost::log::v2_mt_posix::core" = type { ptr }
%"struct.boost::log::v2_mt_posix::core::implementation" = type { %"class.boost::log::v2_mt_posix::aux::light_rw_mutex", %"class.std::vector", %"class.boost::shared_ptr", %"class.boost::log::v2_mt_posix::attribute_set", %"class.boost::thread_specific_ptr", %"class.boost::atomics::atomic.5", %"class.boost::log::v2_mt_posix::filter", %"class.boost::log::v2_mt_posix::aux::light_function.8" }
%"class.boost::log::v2_mt_posix::aux::light_rw_mutex" = type { %union.pthread_rwlock_t }
%union.pthread_rwlock_t = type { %struct.__pthread_rwlock_arch_t }
%struct.__pthread_rwlock_arch_t = type { i32, i32, i32, i32, i32, i32, i32, i32, i8, [7 x i8], i64, i32 }
%"class.std::vector" = type { %"struct.std::_Vector_base" }
%"struct.std::_Vector_base" = type { %"struct.std::_Vector_base<boost::shared_ptr<boost::log::v2_mt_posix::sinks::sink>, std::allocator<boost::shared_ptr<boost::log::v2_mt_posix::sinks::sink>>>::_Vector_impl" }
%"struct.std::_Vector_base<boost::shared_ptr<boost::log::v2_mt_posix::sinks::sink>, std::allocator<boost::shared_ptr<boost::log::v2_mt_posix::sinks::sink>>>::_Vector_impl" = type { %"struct.std::_Vector_base<boost::shared_ptr<boost::log::v2_mt_posix::sinks::sink>, std::allocator<boost::shared_ptr<boost::log::v2_mt_posix::sinks::sink>>>::_Vector_impl_data" }
%"struct.std::_Vector_base<boost::shared_ptr<boost::log::v2_mt_posix::sinks::sink>, std::allocator<boost::shared_ptr<boost::log::v2_mt_posix::sinks::sink>>>::_Vector_impl_data" = type { ptr, ptr, ptr }
%"class.boost::shared_ptr" = type { ptr, %"class.boost::detail::shared_count" }
%"class.boost::log::v2_mt_posix::attribute_set" = type { ptr }
%"class.boost::thread_specific_ptr" = type { ptr }
%"class.boost::atomics::atomic.5" = type { %"class.boost::atomics::detail::base_atomic.6" }
%"class.boost::atomics::detail::base_atomic.6" = type { %"class.boost::atomics::detail::base_atomic_common.7" }
%"class.boost::atomics::detail::base_atomic_common.7" = type { i8 }
%"class.boost::log::v2_mt_posix::filter" = type { %"class.boost::log::v2_mt_posix::aux::light_function" }
%"class.boost::log::v2_mt_posix::aux::light_function" = type { ptr }
%"class.boost::log::v2_mt_posix::aux::light_function.8" = type { ptr }
%"struct.boost::log::v2_mt_posix::aux::exclusive_lock_guard" = type { ptr }
%"class.boost::detail::sp_counted_base" = type { ptr, i32, i32 }

; Function Attrs: mustprogress uwtable
define linkonce_odr hidden void @_ZN5boost6detail15sp_counted_base12weak_releaseEv(ptr noundef nonnull align 8 dereferenceable(16) %0) #3 comdat align 2 {
  %2 = alloca ptr, align 8
  store ptr %0, ptr %2, align 8, !tbaa !3
  %3 = load ptr, ptr %2, align 8
  %4 = getelementptr inbounds nuw %"class.boost::detail::sp_counted_base", ptr %3, i32 0, i32 2
  %5 = call noundef i32 @_ZN5boost6detail16atomic_decrementEPj(ptr noundef %4)
  %6 = icmp eq i32 %5, 1
  br i1 %6, label %7, label %11

7:                                                ; preds = %1
  %8 = load ptr, ptr %3, align 8, !tbaa !28
  %9 = getelementptr inbounds ptr, ptr %8, i64 3
  %10 = load ptr, ptr %9, align 8
  call void %10(ptr noundef nonnull align 8 dereferenceable(16) %3)
  br label %11

11:                                               ; preds = %7, %1
  ret void
}

; Function Attrs: inlinehint mustprogress nounwind uwtable
define linkonce_odr hidden noundef i32 @_ZN5boost6detail16atomic_decrementEPj(ptr noundef %0) #7 comdat {
  %2 = alloca ptr, align 8
  %3 = alloca i32, align 4
  %4 = alloca i32, align 4
  store ptr %0, ptr %2, align 8, !tbaa !3
  %5 = load ptr, ptr %2, align 8, !tbaa !3
  store i32 1, ptr %3, align 4, !tbaa !7
  %6 = load i32, ptr %3, align 4
  %7 = atomicrmw sub ptr %5, i32 %6 acq_rel, align 4
  store i32 %7, ptr %4, align 4
  %8 = load i32, ptr %4, align 4, !tbaa !7
  ret i32 %8
}

; Function Attrs: mustprogress uwtable
define linkonce_odr hidden void @_ZN5boost6detail15sp_counted_base7releaseEv(ptr noundef nonnull align 8 dereferenceable(16) %0) #3 comdat align 2 {
  %2 = alloca ptr, align 8
  store ptr %0, ptr %2, align 8, !tbaa !3
  %3 = load ptr, ptr %2, align 8
  %4 = getelementptr inbounds nuw %"class.boost::detail::sp_counted_base", ptr %3, i32 0, i32 1
  %5 = call noundef i32 @_ZN5boost6detail16atomic_decrementEPj(ptr noundef %4)
  %6 = icmp eq i32 %5, 1
  br i1 %6, label %7, label %11

7:                                                ; preds = %1
  %8 = load ptr, ptr %3, align 8, !tbaa !28
  %9 = getelementptr inbounds ptr, ptr %8, i64 2
  %10 = load ptr, ptr %9, align 8
  call void %10(ptr noundef nonnull align 8 dereferenceable(16) %3)
  call void @_ZN5boost6detail15sp_counted_base12weak_releaseEv(ptr noundef nonnull align 8 dereferenceable(16) %3)
  br label %11

11:                                               ; preds = %7, %1
  ret void
}

; Function Attrs: mustprogress nounwind uwtable
define linkonce_odr hidden void @_ZN5boost6detail12shared_countD2Ev(ptr noundef nonnull align 8 dereferenceable(8) %0) unnamed_addr #2 comdat align 2 personality ptr @__gxx_personality_v0 {
  %2 = alloca ptr, align 8
  store ptr %0, ptr %2, align 8, !tbaa !3
  %3 = load ptr, ptr %2, align 8
  %4 = getelementptr inbounds nuw %"class.boost::detail::shared_count", ptr %3, i32 0, i32 0
  %5 = load ptr, ptr %4, align 8, !tbaa !90
  %6 = icmp ne ptr %5, null
  br i1 %6, label %7, label %11

7:                                                ; preds = %1
  %8 = getelementptr inbounds nuw %"class.boost::detail::shared_count", ptr %3, i32 0, i32 0
  %9 = load ptr, ptr %8, align 8, !tbaa !90
  invoke void @_ZN5boost6detail15sp_counted_base7releaseEv(ptr noundef nonnull align 8 dereferenceable(16) %9)
          to label %10 unwind label %12

10:                                               ; preds = %7
  br label %11

11:                                               ; preds = %10, %1
  ret void

12:                                               ; preds = %7
  %13 = landingpad { ptr, i32 }
          catch ptr null
  %14 = extractvalue { ptr, i32 } %13, 0
  call void @__clang_call_terminate(ptr %14) #20
  unreachable
}

; Function Attrs: inlinehint mustprogress nounwind uwtable
define linkonce_odr hidden void @_ZN5boost10shared_ptrINS_3log11v2_mt_posix5sinks4sinkEED2Ev(ptr noundef nonnull align 8 dereferenceable(16) %0) unnamed_addr #7 comdat align 2 {
  %2 = alloca ptr, align 8
  store ptr %0, ptr %2, align 8, !tbaa !3
  %3 = load ptr, ptr %2, align 8
  %4 = getelementptr inbounds nuw %"class.boost::shared_ptr", ptr %3, i32 0, i32 1
  call void @_ZN5boost6detail12shared_countD2Ev(ptr noundef nonnull align 8 dereferenceable(8) %4) #17
  ret void
}

; Function Attrs: inlinehint mustprogress nounwind uwtable
define linkonce_odr hidden void @_ZSt8_DestroyIN5boost10shared_ptrINS0_3log11v2_mt_posix5sinks4sinkEEEEvPT_(ptr noundef %0) #7 comdat {
  %2 = alloca ptr, align 8
  store ptr %0, ptr %2, align 8, !tbaa !3
  %3 = load ptr, ptr %2, align 8, !tbaa !3
  call void @_ZN5boost10shared_ptrINS_3log11v2_mt_posix5sinks4sinkEED2Ev(ptr noundef nonnull align 8 dereferenceable(16) %3) #17
  ret void
}

; Function Attrs: mustprogress uwtable
define linkonce_odr hidden void @_ZNSt12_Destroy_auxILb0EE9__destroyIPN5boost10shared_ptrINS2_3log11v2_mt_posix5sinks4sinkEEEEEvT_SA_(ptr noundef %0, ptr noundef %1) #3 comdat align 2 {
  %3 = alloca ptr, align 8
  %4 = alloca ptr, align 8
  store ptr %0, ptr %3, align 8, !tbaa !3
  store ptr %1, ptr %4, align 8, !tbaa !3
  br label %5

5:                                                ; preds = %11, %2
  %6 = load ptr, ptr %3, align 8, !tbaa !3
  %7 = load ptr, ptr %4, align 8, !tbaa !3
  %8 = icmp ne ptr %6, %7
  br i1 %8, label %9, label %14

9:                                                ; preds = %5
  %10 = load ptr, ptr %3, align 8, !tbaa !3
  call void @_ZSt8_DestroyIN5boost10shared_ptrINS0_3log11v2_mt_posix5sinks4sinkEEEEvPT_(ptr noundef %10)
  br label %11

11:                                               ; preds = %9
  %12 = load ptr, ptr %3, align 8, !tbaa !3
  %13 = getelementptr inbounds nuw %"class.boost::shared_ptr", ptr %12, i32 1
  store ptr %13, ptr %3, align 8, !tbaa !3
  br label %5, !llvm.loop !124

14:                                               ; preds = %5
  ret void
}

; Function Attrs: inlinehint mustprogress uwtable
define linkonce_odr hidden void @_ZSt8_DestroyIPN5boost10shared_ptrINS0_3log11v2_mt_posix5sinks4sinkEEEEvT_S8_(ptr noundef %0, ptr noundef %1) #9 comdat {
  %3 = alloca ptr, align 8
  %4 = alloca ptr, align 8
  store ptr %0, ptr %3, align 8, !tbaa !3
  store ptr %1, ptr %4, align 8, !tbaa !3
  %5 = load ptr, ptr %3, align 8, !tbaa !3
  %6 = load ptr, ptr %4, align 8, !tbaa !3
  call void @_ZNSt12_Destroy_auxILb0EE9__destroyIPN5boost10shared_ptrINS2_3log11v2_mt_posix5sinks4sinkEEEEEvT_SA_(ptr noundef %5, ptr noundef %6)
  ret void
}

; Function Attrs: inlinehint mustprogress uwtable
define linkonce_odr hidden void @_ZSt8_DestroyIPN5boost10shared_ptrINS0_3log11v2_mt_posix5sinks4sinkEEES6_EvT_S8_RSaIT0_E(ptr noundef %0, ptr noundef %1, ptr noundef nonnull align 1 dereferenceable(1) %2) #9 comdat {
  %4 = alloca ptr, align 8
  %5 = alloca ptr, align 8
  %6 = alloca ptr, align 8
  store ptr %0, ptr %4, align 8, !tbaa !3
  store ptr %1, ptr %5, align 8, !tbaa !3
  store ptr %2, ptr %6, align 8, !tbaa !3
  %7 = load ptr, ptr %4, align 8, !tbaa !3
  %8 = load ptr, ptr %5, align 8, !tbaa !3
  call void @_ZSt8_DestroyIPN5boost10shared_ptrINS0_3log11v2_mt_posix5sinks4sinkEEEEvT_S8_(ptr noundef %7, ptr noundef %8)
  ret void
}

; Function Attrs: mustprogress nounwind uwtable
define linkonce_odr hidden noundef nonnull align 1 dereferenceable(1) ptr @_ZNSt12_Vector_baseIN5boost10shared_ptrINS0_3log11v2_mt_posix5sinks4sinkEEESaIS6_EE19_M_get_Tp_allocatorEv(ptr noundef nonnull align 8 dereferenceable(24) %0) #2 comdat align 2 {
  %2 = alloca ptr, align 8
  store ptr %0, ptr %2, align 8, !tbaa !3
  %3 = load ptr, ptr %2, align 8
  %4 = getelementptr inbounds nuw %"struct.std::_Vector_base", ptr %3, i32 0, i32 0
  ret ptr %4
}

; Function Attrs: mustprogress nounwind uwtable
define linkonce_odr hidden void @_ZN5boost3log11v2_mt_posix3aux14light_rw_mutex6unlockEv(ptr noundef nonnull align 8 dereferenceable(56) %0) #2 comdat align 2 {
  %2 = alloca ptr, align 8
  store ptr %0, ptr %2, align 8, !tbaa !3
  %3 = load ptr, ptr %2, align 8
  %4 = getelementptr inbounds nuw %"class.boost::log::v2_mt_posix::aux::light_rw_mutex", ptr %3, i32 0, i32 0
  %5 = call i32 @pthread_rwlock_unlock(ptr noundef %4) #17
  ret void
}

; Function Attrs: mustprogress nounwind uwtable
define linkonce_odr hidden void @_ZNSt6vectorIN5boost10shared_ptrINS0_3log11v2_mt_posix5sinks4sinkEEESaIS6_EE15_M_erase_at_endEPS6_(ptr noundef nonnull align 8 dereferenceable(24) %0, ptr noundef %1) #2 comdat align 2 personality ptr @__gxx_personality_v0 {
  %3 = alloca ptr, align 8
  %4 = alloca ptr, align 8
  %5 = alloca i64, align 8
  store ptr %0, ptr %3, align 8, !tbaa !3
  store ptr %1, ptr %4, align 8, !tbaa !3
  %6 = load ptr, ptr %3, align 8
  call void @llvm.lifetime.start.p0(i64 8, ptr %5) #17
  %7 = getelementptr inbounds nuw %"struct.std::_Vector_base", ptr %6, i32 0, i32 0
  %8 = getelementptr inbounds nuw %"struct.std::_Vector_base<boost::shared_ptr<boost::log::v2_mt_posix::sinks::sink>, std::allocator<boost::shared_ptr<boost::log::v2_mt_posix::sinks::sink>>>::_Vector_impl_data", ptr %7, i32 0, i32 1
  %9 = load ptr, ptr %8, align 8, !tbaa !43
  %10 = load ptr, ptr %4, align 8, !tbaa !3
  %11 = ptrtoint ptr %9 to i64
  %12 = ptrtoint ptr %10 to i64
  %13 = sub i64 %11, %12
  %14 = sdiv exact i64 %13, 16
  store i64 %14, ptr %5, align 8, !tbaa !71
  %15 = load i64, ptr %5, align 8, !tbaa !71
  %16 = icmp ne i64 %15, 0
  br i1 %16, label %17, label %27

17:                                               ; preds = %2
  %18 = load ptr, ptr %4, align 8, !tbaa !3
  %19 = getelementptr inbounds nuw %"struct.std::_Vector_base", ptr %6, i32 0, i32 0
  %20 = getelementptr inbounds nuw %"struct.std::_Vector_base<boost::shared_ptr<boost::log::v2_mt_posix::sinks::sink>, std::allocator<boost::shared_ptr<boost::log::v2_mt_posix::sinks::sink>>>::_Vector_impl_data", ptr %19, i32 0, i32 1
  %21 = load ptr, ptr %20, align 8, !tbaa !43
  %22 = call noundef nonnull align 1 dereferenceable(1) ptr @_ZNSt12_Vector_baseIN5boost10shared_ptrINS0_3log11v2_mt_posix5sinks4sinkEEESaIS6_EE19_M_get_Tp_allocatorEv(ptr noundef nonnull align 8 dereferenceable(24) %6) #17
  invoke void @_ZSt8_DestroyIPN5boost10shared_ptrINS0_3log11v2_mt_posix5sinks4sinkEEES6_EvT_S8_RSaIT0_E(ptr noundef %18, ptr noundef %21, ptr noundef nonnull align 1 dereferenceable(1) %22)
          to label %23 unwind label %28

23:                                               ; preds = %17
  %24 = load ptr, ptr %4, align 8, !tbaa !3
  %25 = getelementptr inbounds nuw %"struct.std::_Vector_base", ptr %6, i32 0, i32 0
  %26 = getelementptr inbounds nuw %"struct.std::_Vector_base<boost::shared_ptr<boost::log::v2_mt_posix::sinks::sink>, std::allocator<boost::shared_ptr<boost::log::v2_mt_posix::sinks::sink>>>::_Vector_impl_data", ptr %25, i32 0, i32 1
  store ptr %24, ptr %26, align 8, !tbaa !43
  br label %27

27:                                               ; preds = %23, %2
  call void @llvm.lifetime.end.p0(i64 8, ptr %5) #17
  ret void

28:                                               ; preds = %17
  %29 = landingpad { ptr, i32 }
          catch ptr null
  %30 = extractvalue { ptr, i32 } %29, 0
  call void @__clang_call_terminate(ptr %30) #20
  unreachable
}

; Function Attrs: mustprogress nounwind uwtable
define linkonce_odr hidden void @_ZN5boost3log11v2_mt_posix3aux14light_rw_mutex4lockEv(ptr noundef nonnull align 8 dereferenceable(56) %0) #2 comdat align 2 {
  %2 = alloca ptr, align 8
  store ptr %0, ptr %2, align 8, !tbaa !3
  %3 = load ptr, ptr %2, align 8
  %4 = getelementptr inbounds nuw %"class.boost::log::v2_mt_posix::aux::light_rw_mutex", ptr %3, i32 0, i32 0
  %5 = call i32 @pthread_rwlock_wrlock(ptr noundef %4) #17
  ret void
}

; Function Attrs: mustprogress nounwind uwtable
define linkonce_odr hidden void @_ZN5boost3log11v2_mt_posix3aux20exclusive_lock_guardINS2_14light_rw_mutexEED2Ev(ptr noundef nonnull align 8 dereferenceable(8) %0) unnamed_addr #2 comdat align 2 personality ptr @__gxx_personality_v0 {
  %2 = alloca ptr, align 8
  store ptr %0, ptr %2, align 8, !tbaa !3
  %3 = load ptr, ptr %2, align 8
  %4 = getelementptr inbounds nuw %"struct.boost::log::v2_mt_posix::aux::exclusive_lock_guard", ptr %3, i32 0, i32 0
  %5 = load ptr, ptr %4, align 8, !tbaa !46
  invoke void @_ZN5boost3log11v2_mt_posix3aux14light_rw_mutex6unlockEv(ptr noundef nonnull align 8 dereferenceable(56) %5)
          to label %6 unwind label %7

6:                                                ; preds = %1
  ret void

7:                                                ; preds = %1
  %8 = landingpad { ptr, i32 }
          catch ptr null
  %9 = extractvalue { ptr, i32 } %8, 0
  call void @__clang_call_terminate(ptr %9) #20
  unreachable
}

; Function Attrs: mustprogress nounwind uwtable
define linkonce_odr hidden void @_ZNSt6vectorIN5boost10shared_ptrINS0_3log11v2_mt_posix5sinks4sinkEEESaIS6_EE5clearEv(ptr noundef nonnull align 8 dereferenceable(24) %0) #2 comdat align 2 {
  %2 = alloca ptr, align 8
  store ptr %0, ptr %2, align 8, !tbaa !3
  %3 = load ptr, ptr %2, align 8
  %4 = getelementptr inbounds nuw %"struct.std::_Vector_base", ptr %3, i32 0, i32 0
  %5 = getelementptr inbounds nuw %"struct.std::_Vector_base<boost::shared_ptr<boost::log::v2_mt_posix::sinks::sink>, std::allocator<boost::shared_ptr<boost::log::v2_mt_posix::sinks::sink>>>::_Vector_impl_data", ptr %4, i32 0, i32 0
  %6 = load ptr, ptr %5, align 8, !tbaa !50
  call void @_ZNSt6vectorIN5boost10shared_ptrINS0_3log11v2_mt_posix5sinks4sinkEEESaIS6_EE15_M_erase_at_endEPS6_(ptr noundef nonnull align 8 dereferenceable(24) %3, ptr noundef %6) #17
  ret void
}

; Function Attrs: mustprogress uwtable
define linkonce_odr hidden void @_ZN5boost3log11v2_mt_posix3aux20exclusive_lock_guardINS2_14light_rw_mutexEEC2ERS4_(ptr noundef nonnull align 8 dereferenceable(8) %0, ptr noundef nonnull align 8 dereferenceable(56) %1) unnamed_addr #3 comdat align 2 {
  %3 = alloca ptr, align 8
  %4 = alloca ptr, align 8
  store ptr %0, ptr %3, align 8, !tbaa !3
  store ptr %1, ptr %4, align 8, !tbaa !3
  %5 = load ptr, ptr %3, align 8
  %6 = getelementptr inbounds nuw %"struct.boost::log::v2_mt_posix::aux::exclusive_lock_guard", ptr %5, i32 0, i32 0
  %7 = load ptr, ptr %4, align 8, !tbaa !3
  store ptr %7, ptr %6, align 8, !tbaa !3
  %8 = load ptr, ptr %4, align 8, !tbaa !3
  call void @_ZN5boost3log11v2_mt_posix3aux14light_rw_mutex4lockEv(ptr noundef nonnull align 8 dereferenceable(56) %8)
  ret void
}

; Function Attrs: mustprogress uwtable
define void @_ZN5boost3log11v2_mt_posix4core16remove_all_sinksEv(ptr noundef nonnull align 8 dereferenceable(8) %0) #3 align 2 {
  %2 = alloca ptr, align 8
  %3 = alloca %"struct.boost::log::v2_mt_posix::aux::exclusive_lock_guard", align 8
  store ptr %0, ptr %2, align 8, !tbaa !3
  %4 = load ptr, ptr %2, align 8
  call void @llvm.lifetime.start.p0(i64 8, ptr %3) #17
  %5 = getelementptr inbounds nuw %"class.boost::log::v2_mt_posix::core", ptr %4, i32 0, i32 0
  %6 = load ptr, ptr %5, align 8, !tbaa !33
  %7 = getelementptr inbounds nuw %"struct.boost::log::v2_mt_posix::core::implementation", ptr %6, i32 0, i32 0
  call void @_ZN5boost3log11v2_mt_posix3aux20exclusive_lock_guardINS2_14light_rw_mutexEEC2ERS4_(ptr noundef nonnull align 8 dereferenceable(8) %3, ptr noundef nonnull align 8 dereferenceable(56) %7)
  %8 = getelementptr inbounds nuw %"class.boost::log::v2_mt_posix::core", ptr %4, i32 0, i32 0
  %9 = load ptr, ptr %8, align 8, !tbaa !33
  %10 = getelementptr inbounds nuw %"struct.boost::log::v2_mt_posix::core::implementation", ptr %9, i32 0, i32 1
  call void @_ZNSt6vectorIN5boost10shared_ptrINS0_3log11v2_mt_posix5sinks4sinkEEESaIS6_EE5clearEv(ptr noundef nonnull align 8 dereferenceable(24) %10) #17
  call void @_ZN5boost3log11v2_mt_posix3aux20exclusive_lock_guardINS2_14light_rw_mutexEED2Ev(ptr noundef nonnull align 8 dereferenceable(8) %3) #17
  call void @llvm.lifetime.end.p0(i64 8, ptr %3) #17
  ret void
}