; Function Attrs: mustprogress uwtable
define void @_ZN5boost3log11v2_mt_posix4core16remove_all_sinksEv(ptr nocapture noundef nonnull readonly align 8 dereferenceable(8) %0) local_unnamed_addr #4 align 2 personality ptr @__gxx_personality_v0 {
  %2 = load ptr, ptr %0, align 8, !tbaa !33
  %3 = tail call i32 @pthread_rwlock_wrlock(ptr noundef nonnull align 8 dereferenceable(56) %2) #21
  %4 = load ptr, ptr %0, align 8, !tbaa !33
  %5 = getelementptr inbounds nuw i8, ptr %4, i64 56
  %6 = load ptr, ptr %5, align 8, !tbaa !55
  %7 = getelementptr inbounds nuw i8, ptr %4, i64 64
  %8 = load ptr, ptr %7, align 8, !tbaa !57
  %.not.i.i = icmp eq ptr %8, %6
  br i1 %.not.i.i, label %_ZNSt6vectorIN5boost10shared_ptrINS0_3log11v2_mt_posix5sinks4sinkEEESaIS6_EE5clearEv.exit, label %.lr.ph.i.i.i.i.i

.lr.ph.i.i.i.i.i:                                 ; preds = %1, %_ZSt8_DestroyIN5boost10shared_ptrINS0_3log11v2_mt_posix5sinks4sinkEEEEvPT_.exit.i.i.i.i.i
  %.05.i.i.i.i.i = phi ptr [ %29, %_ZSt8_DestroyIN5boost10shared_ptrINS0_3log11v2_mt_posix5sinks4sinkEEEEvPT_.exit.i.i.i.i.i ], [ %6, %1 ]
  %9 = getelementptr inbounds nuw i8, ptr %.05.i.i.i.i.i, i64 8
  %10 = load ptr, ptr %9, align 8, !tbaa !40
  %.not.i.i.i.i.i.i.i.i = icmp eq ptr %10, null
  br i1 %.not.i.i.i.i.i.i.i.i, label %_ZSt8_DestroyIN5boost10shared_ptrINS0_3log11v2_mt_posix5sinks4sinkEEEEvPT_.exit.i.i.i.i.i, label %11

11:                                               ; preds = %.lr.ph.i.i.i.i.i
  %12 = getelementptr inbounds nuw i8, ptr %10, i64 8
  %13 = atomicrmw sub ptr %12, i32 1 acq_rel, align 4
  %14 = icmp eq i32 %13, 1
  br i1 %14, label %15, label %_ZSt8_DestroyIN5boost10shared_ptrINS0_3log11v2_mt_posix5sinks4sinkEEEEvPT_.exit.i.i.i.i.i

15:                                               ; preds = %11
  %16 = load ptr, ptr %10, align 8, !tbaa !17
  %17 = getelementptr inbounds i8, ptr %16, i64 16
  %18 = load ptr, ptr %17, align 8
  invoke void %18(ptr noundef nonnull align 8 dereferenceable(16) %10)
          to label %.noexc.i.i.i.i.i.i.i.i unwind label %26

.noexc.i.i.i.i.i.i.i.i:                           ; preds = %15
  %19 = getelementptr inbounds nuw i8, ptr %10, i64 12
  %20 = atomicrmw sub ptr %19, i32 1 acq_rel, align 4
  %21 = icmp eq i32 %20, 1
  br i1 %21, label %22, label %_ZSt8_DestroyIN5boost10shared_ptrINS0_3log11v2_mt_posix5sinks4sinkEEEEvPT_.exit.i.i.i.i.i

22:                                               ; preds = %.noexc.i.i.i.i.i.i.i.i
  %23 = load ptr, ptr %10, align 8, !tbaa !17
  %24 = getelementptr inbounds i8, ptr %23, i64 24
  %25 = load ptr, ptr %24, align 8
  invoke void %25(ptr noundef nonnull align 8 dereferenceable(16) %10)
          to label %_ZSt8_DestroyIN5boost10shared_ptrINS0_3log11v2_mt_posix5sinks4sinkEEEEvPT_.exit.i.i.i.i.i unwind label %26

26:                                               ; preds = %22, %15
  %27 = landingpad { ptr, i32 }
          catch ptr null
  %28 = extractvalue { ptr, i32 } %27, 0
  tail call void @__clang_call_terminate(ptr %28) #22
  unreachable

_ZSt8_DestroyIN5boost10shared_ptrINS0_3log11v2_mt_posix5sinks4sinkEEEEvPT_.exit.i.i.i.i.i: ; preds = %22, %.noexc.i.i.i.i.i.i.i.i, %11, %.lr.ph.i.i.i.i.i
  %29 = getelementptr inbounds nuw i8, ptr %.05.i.i.i.i.i, i64 16
  %.not.i.i.i.i.i = icmp eq ptr %29, %8
  br i1 %.not.i.i.i.i.i, label %_ZSt8_DestroyIPN5boost10shared_ptrINS0_3log11v2_mt_posix5sinks4sinkEEES6_EvT_S8_RSaIT0_E.exit.i.i, label %.lr.ph.i.i.i.i.i, !llvm.loop !58

_ZSt8_DestroyIPN5boost10shared_ptrINS0_3log11v2_mt_posix5sinks4sinkEEES6_EvT_S8_RSaIT0_E.exit.i.i: ; preds = %_ZSt8_DestroyIN5boost10shared_ptrINS0_3log11v2_mt_posix5sinks4sinkEEEEvPT_.exit.i.i.i.i.i
  store ptr %6, ptr %7, align 8, !tbaa !57
  br label %_ZNSt6vectorIN5boost10shared_ptrINS0_3log11v2_mt_posix5sinks4sinkEEESaIS6_EE5clearEv.exit

_ZNSt6vectorIN5boost10shared_ptrINS0_3log11v2_mt_posix5sinks4sinkEEESaIS6_EE5clearEv.exit: ; preds = %1, %_ZSt8_DestroyIPN5boost10shared_ptrINS0_3log11v2_mt_posix5sinks4sinkEEES6_EvT_S8_RSaIT0_E.exit.i.i
  %30 = tail call i32 @pthread_rwlock_unlock(ptr noundef nonnull align 8 dereferenceable(56) %2) #21
  ret void
}